target datalayout = "e-m:e-p270:32:32-p271:32:32-p272:64:64-i64:64-i128:128-f80:128-n8:16:32:64-S128"
target triple = "x86_64-unknown-linux-gnu"

%"class.datalog::rule" = type { %"class.datalog::accounted_object.base", ptr, ptr, i32, i32, i32, i32, %class.symbol, [0 x ptr] }
%"class.datalog::accounted_object.base" = type <{ ptr, ptr, %"struct.datalog::costs", %"struct.datalog::costs", i8 }>
%"struct.datalog::costs" = type { i32, i32 }
%class.symbol = type { ptr }
%class.func_decl = type { %class.decl, i32, ptr, [0 x ptr] }
%class.decl = type { %class.ast, %class.symbol, ptr }
%class.ast = type { i32, i24, i32, i32 }
%class.app = type { %class.expr, ptr, i32, [0 x ptr] }
%class.expr = type { %class.ast }

; Function Attrs: mustprogress nounwind uwtable
define linkonce_odr hidden noundef ptr @_ZNK7datalog4rule8get_tailEj(ptr noundef nonnull align 8 dereferenceable(80) %this, i32 noundef %i) #5 comdat align 2 {
entry:
  %this.addr = alloca ptr, align 8
  %i.addr = alloca i32, align 4
  store ptr %this, ptr %this.addr, align 8
  store i32 %i, ptr %i.addr, align 4
  %this1 = load ptr, ptr %this.addr, align 8
  %m_tail = getelementptr inbounds %"class.datalog::rule", ptr %this1, i32 0, i32 8
  %0 = load i32, ptr %i.addr, align 4
  %idxprom = zext i32 %0 to i64
  %arrayidx = getelementptr inbounds [0 x ptr], ptr %m_tail, i64 0, i64 %idxprom
  %1 = load ptr, ptr %arrayidx, align 8
  %2 = ptrtoint ptr %1 to i64
  %and = and i64 %2, -8
  %3 = inttoptr i64 %and to ptr
  ret ptr %3
}

; Function Attrs: mustprogress nounwind uwtable
define linkonce_odr hidden noundef ptr @_ZNK3app8get_declEv(ptr noundef nonnull align 8 dereferenceable(32) %this) #5 comdat align 2 {
entry:
  %this.addr = alloca ptr, align 8
  store ptr %this, ptr %this.addr, align 8
  %this1 = load ptr, ptr %this.addr, align 8
  %m_decl = getelementptr inbounds %class.app, ptr %this1, i32 0, i32 1
  %0 = load ptr, ptr %m_decl, align 8
  ret ptr %0
}

; Function Attrs: mustprogress nounwind uwtable
define linkonce_odr hidden noundef ptr @_ZNK7datalog4rule8get_headEv(ptr noundef nonnull align 8 dereferenceable(80) %this) #5 comdat align 2 {
entry:
  %this.addr = alloca ptr, align 8
  store ptr %this, ptr %this.addr, align 8
  %this1 = load ptr, ptr %this.addr, align 8
  %m_head = getelementptr inbounds %"class.datalog::rule", ptr %this1, i32 0, i32 1
  %0 = load ptr, ptr %m_head, align 8
  ret ptr %0
}

; Function Attrs: mustprogress nounwind uwtable
define linkonce_odr hidden noundef i32 @_ZNK3ast6get_idEv(ptr noundef nonnull align 4 dereferenceable(16) %this) #5 comdat align 2 {
entry:
  %this.addr = alloca ptr, align 8
  store ptr %this, ptr %this.addr, align 8
  %this1 = load ptr, ptr %this.addr, align 8
  %m_id = getelementptr inbounds %class.ast, ptr %this1, i32 0, i32 0
  %0 = load i32, ptr %m_id, align 4
  ret i32 %0
}

; Function Attrs: mustprogress uwtable
define linkonce_odr hidden noundef ptr @_ZNK7datalog4rule8get_declEj(ptr noundef nonnull align 8 dereferenceable(80) %this, i32 noundef %i) #4 comdat align 2 {
entry:
  %this.addr = alloca ptr, align 8
  %i.addr = alloca i32, align 4
  store ptr %this, ptr %this.addr, align 8
  store i32 %i, ptr %i.addr, align 4
  %this1 = load ptr, ptr %this.addr, align 8
  %0 = load i32, ptr %i.addr, align 4
  %call = call noundef ptr @_ZNK7datalog4rule8get_tailEj(ptr noundef nonnull align 8 dereferenceable(80) %this1, i32 noundef %0)
  %call2 = call noundef ptr @_ZNK3app8get_declEv(ptr noundef nonnull align 8 dereferenceable(32) %call)
  ret ptr %call2
}

; Function Attrs: mustprogress nounwind uwtable
define linkonce_odr hidden noundef i32 @_ZNK7datalog4rule22get_positive_tail_sizeEv(ptr noundef nonnull align 8 dereferenceable(80) %this) #5 comdat align 2 {
entry:
  %this.addr = alloca ptr, align 8
  store ptr %this, ptr %this.addr, align 8
  %this1 = load ptr, ptr %this.addr, align 8
  %m_positive_cnt = getelementptr inbounds %"class.datalog::rule", ptr %this1, i32 0, i32 5
  %0 = load i32, ptr %m_positive_cnt, align 8
  ret i32 %0
}

; Function Attrs: mustprogress nounwind uwtable
define linkonce_odr hidden noundef i32 @_ZNK9func_decl9get_arityEv(ptr noundef nonnull align 8 dereferenceable(48) %this) #5 comdat align 2 {
entry:
  %this.addr = alloca ptr, align 8
  store ptr %this, ptr %this.addr, align 8
  %this1 = load ptr, ptr %this.addr, align 8
  %m_arity = getelementptr inbounds %class.func_decl, ptr %this1, i32 0, i32 1
  %0 = load i32, ptr %m_arity, align 8
  ret i32 %0
}

; Function Attrs: mustprogress uwtable
define linkonce_odr hidden noundef ptr @_ZNK7datalog4rule8get_declEv(ptr noundef nonnull align 8 dereferenceable(80) %this) #4 comdat align 2 {
entry:
  %this.addr = alloca ptr, align 8
  store ptr %this, ptr %this.addr, align 8
  %this1 = load ptr, ptr %this.addr, align 8
  %call = call noundef ptr @_ZNK7datalog4rule8get_headEv(ptr noundef nonnull align 8 dereferenceable(80) %this1)
  %call2 = call noundef ptr @_ZNK3app8get_declEv(ptr noundef nonnull align 8 dereferenceable(32) %call)
  ret ptr %call2
}

; Function Attrs: mustprogress uwtable
define hidden noundef zeroext i1 @_ZN7datalog15mk_rule_inliner20is_oriented_rewriterEPNS_4ruleERKNS_15rule_stratifierE(ptr noundef nonnull align 8 dereferenceable(1672) %this, ptr noundef %r, ptr noundef nonnull align 8 dereferenceable(120) %strat) #4 align 2 {
entry:
  %retval = alloca i1, align 1
  %this.addr = alloca ptr, align 8
  %r.addr = alloca ptr, align 8
  %strat.addr = alloca ptr, align 8
  %head_pred = alloca ptr, align 8
  %head_strat = alloca i32, align 4
  %head_arity = alloca i32, align 4
  %pt_len = alloca i32, align 4
  %ti = alloca i32, align 4
  %pred = alloca ptr, align 8
  %pred_strat = alloca i32, align 4
  store ptr %this, ptr %this.addr, align 8
  store ptr %r, ptr %r.addr, align 8
  store ptr %strat, ptr %strat.addr, align 8
  %0 = load ptr, ptr %r.addr, align 8
  %call = call noundef ptr @_ZNK7datalog4rule8get_declEv(ptr noundef nonnull align 8 dereferenceable(80) %0)
  store ptr %call, ptr %head_pred, align 8
  %1 = load ptr, ptr %strat.addr, align 8
  %2 = load ptr, ptr %head_pred, align 8
  %call2 = call noundef i32 @_ZNK7datalog15rule_stratifier19get_predicate_stratEP9func_decl(ptr noundef nonnull align 8 dereferenceable(120) %1, ptr noundef %2)
  store i32 %call2, ptr %head_strat, align 4
  %3 = load ptr, ptr %head_pred, align 8
  %call3 = call noundef i32 @_ZNK9func_decl9get_arityEv(ptr noundef nonnull align 8 dereferenceable(48) %3)
  store i32 %call3, ptr %head_arity, align 4
  %4 = load ptr, ptr %r.addr, align 8
  %call4 = call noundef i32 @_ZNK7datalog4rule22get_positive_tail_sizeEv(ptr noundef nonnull align 8 dereferenceable(80) %4)
  store i32 %call4, ptr %pt_len, align 4
  store i32 0, ptr %ti, align 4
  br label %for.cond

for.cond:                                         ; preds = %for.inc, %entry
  %5 = load i32, ptr %ti, align 4
  %6 = load i32, ptr %pt_len, align 4
  %cmp = icmp ult i32 %5, %6
  br i1 %cmp, label %for.body, label %for.end

for.body:                                         ; preds = %for.cond
  %7 = load ptr, ptr %r.addr, align 8
  %8 = load i32, ptr %ti, align 4
  %call5 = call noundef ptr @_ZNK7datalog4rule8get_declEj(ptr noundef nonnull align 8 dereferenceable(80) %7, i32 noundef %8)
  store ptr %call5, ptr %pred, align 8
  %9 = load ptr, ptr %strat.addr, align 8
  %10 = load ptr, ptr %pred, align 8
  %call6 = call noundef i32 @_ZNK7datalog15rule_stratifier19get_predicate_stratEP9func_decl(ptr noundef nonnull align 8 dereferenceable(120) %9, ptr noundef %10)
  store i32 %call6, ptr %pred_strat, align 4
  %11 = load i32, ptr %pred_strat, align 4
  %12 = load i32, ptr %head_strat, align 4
  %cmp7 = icmp eq i32 %11, %12
  br i1 %cmp7, label %if.then, label %if.end16

if.then:                                          ; preds = %for.body
  %13 = load ptr, ptr %pred, align 8
  %call8 = call noundef i32 @_ZNK9func_decl9get_arityEv(ptr noundef nonnull align 8 dereferenceable(48) %13)
  %14 = load i32, ptr %head_arity, align 4
  %cmp9 = icmp ugt i32 %call8, %14
  br i1 %cmp9, label %if.then15, label %lor.lhs.false

lor.lhs.false:                                    ; preds = %if.then
  %15 = load ptr, ptr %pred, align 8
  %call10 = call noundef i32 @_ZNK9func_decl9get_arityEv(ptr noundef nonnull align 8 dereferenceable(48) %15)
  %16 = load i32, ptr %head_arity, align 4
  %cmp11 = icmp eq i32 %call10, %16
  br i1 %cmp11, label %land.lhs.true, label %if.end

land.lhs.true:                                    ; preds = %lor.lhs.false
  %17 = load ptr, ptr %pred, align 8
  %call12 = call noundef i32 @_ZNK3ast6get_idEv(ptr noundef nonnull align 4 dereferenceable(16) %17)
  %18 = load ptr, ptr %head_pred, align 8
  %call13 = call noundef i32 @_ZNK3ast6get_idEv(ptr noundef nonnull align 4 dereferenceable(16) %18)
  %cmp14 = icmp uge i32 %call12, %call13
  br i1 %cmp14, label %if.then15, label %if.end

if.then15:                                        ; preds = %land.lhs.true, %if.then
  store i1 false, ptr %retval, align 1
  br label %return

if.end:                                           ; preds = %land.lhs.true, %lor.lhs.false
  br label %if.end16

if.end16:                                         ; preds = %if.end, %for.body
  br label %for.inc

for.inc:                                          ; preds = %if.end16
  %19 = load i32, ptr %ti, align 4
  %inc = add i32 %19, 1
  store i32 %inc, ptr %ti, align 4
  br label %for.cond, !llvm.loop !15

for.end:                                          ; preds = %for.cond
  store i1 true, ptr %retval, align 1
  br label %return

return:                                           ; preds = %for.end, %if.then15
  %20 = load i1, ptr %retval, align 1
  ret i1 %20
}