; Function Attrs: mustprogress uwtable
define hidden noundef zeroext i1 @_ZN7datalog15mk_rule_inliner20is_oriented_rewriterEPNS_4ruleERKNS_15rule_stratifierE(ptr nocapture noundef nonnull readnone align 8 dereferenceable(1672) %this, ptr nocapture noundef readonly %r, ptr noundef nonnull align 8 dereferenceable(120) %strat) local_unnamed_addr #3 align 2 {
entry:
  %m_head.i.i = getelementptr inbounds i8, ptr %r, i64 40
  %0 = load ptr, ptr %m_head.i.i, align 8
  %m_decl.i.i = getelementptr inbounds i8, ptr %0, i64 16
  %1 = load ptr, ptr %m_decl.i.i, align 8
  %call2 = tail call noundef i32 @_ZNK7datalog15rule_stratifier19get_predicate_stratEP9func_decl(ptr noundef nonnull align 8 dereferenceable(120) %strat, ptr noundef %1)
  %m_arity.i = getelementptr inbounds i8, ptr %1, i64 32
  %2 = load i32, ptr %m_arity.i, align 8
  %m_positive_cnt.i = getelementptr inbounds i8, ptr %r, i64 64
  %3 = load i32, ptr %m_positive_cnt.i, align 8
  %cmp15 = icmp eq i32 %3, 0
  br i1 %cmp15, label %return, label %for.body.lr.ph

for.body.lr.ph:                                   ; preds = %entry
  %m_tail.i.i = getelementptr inbounds i8, ptr %r, i64 80
  %4 = zext i32 %3 to i64
  br label %for.body

for.body:                                         ; preds = %for.body.lr.ph, %for.inc
  %indvars.iv = phi i64 [ 0, %for.body.lr.ph ], [ %indvars.iv.next, %for.inc ]
  %cmp17 = phi i1 [ false, %for.body.lr.ph ], [ %cmp, %for.inc ]
  %arrayidx.i.i = getelementptr inbounds [0 x ptr], ptr %m_tail.i.i, i64 0, i64 %indvars.iv
  %5 = load ptr, ptr %arrayidx.i.i, align 8
  %6 = ptrtoint ptr %5 to i64
  %and.i.i = and i64 %6, -8
  %7 = inttoptr i64 %and.i.i to ptr
  %m_decl.i.i12 = getelementptr inbounds i8, ptr %7, i64 16
  %8 = load ptr, ptr %m_decl.i.i12, align 8
  %call6 = tail call noundef i32 @_ZNK7datalog15rule_stratifier19get_predicate_stratEP9func_decl(ptr noundef nonnull align 8 dereferenceable(120) %strat, ptr noundef %8)
  %cmp7 = icmp eq i32 %call6, %call2
  br i1 %cmp7, label %if.then, label %for.inc

if.then:                                          ; preds = %for.body
  %m_arity.i13 = getelementptr inbounds i8, ptr %8, i64 32
  %9 = load i32, ptr %m_arity.i13, align 8
  %cmp9 = icmp ugt i32 %9, %2
  br i1 %cmp9, label %return, label %lor.lhs.false

lor.lhs.false:                                    ; preds = %if.then
  %cmp11 = icmp eq i32 %9, %2
  br i1 %cmp11, label %land.lhs.true, label %for.inc

land.lhs.true:                                    ; preds = %lor.lhs.false
  %10 = load i32, ptr %8, align 4
  %11 = load i32, ptr %1, align 4
  %cmp14.not = icmp ult i32 %10, %11
  br i1 %cmp14.not, label %for.inc, label %return

for.inc:                                          ; preds = %for.body, %land.lhs.true, %lor.lhs.false
  %indvars.iv.next = add nuw nsw i64 %indvars.iv, 1
  %cmp = icmp uge i64 %indvars.iv.next, %4
  %exitcond = icmp eq i64 %indvars.iv.next, %4
  br i1 %exitcond, label %return, label %for.body, !llvm.loop !34

return:                                           ; preds = %land.lhs.true, %if.then, %for.inc, %entry
  %cmp.lcssa = phi i1 [ true, %entry ], [ %cmp, %for.inc ], [ %cmp17, %if.then ], [ %cmp17, %land.lhs.true ]
  ret i1 %cmp.lcssa
}